target datalayout = "e-m:e-p270:32:32-p271:32:32-p272:64:64-i64:64-i128:128-f80:128-n8:16:32:64-S128"
target triple = "x86_64-pc-linux-gnu"

%struct.QualCost = type { double, double }
%struct.cost_qual_eval_context = type { ptr, %struct.QualCost }

; Function Attrs: nounwind uwtable
define dso_local void @cost_qual_eval_node(ptr noundef %0, ptr noundef %1, ptr noundef %2) #0 {
  %4 = alloca ptr, align 8
  %5 = alloca ptr, align 8
  %6 = alloca ptr, align 8
  %7 = alloca %struct.cost_qual_eval_context, align 8
  store ptr %0, ptr %4, align 8
  store ptr %1, ptr %5, align 8
  store ptr %2, ptr %6, align 8
  call void @llvm.lifetime.start.p0(i64 24, ptr %7) #9
  %8 = load ptr, ptr %6, align 8
  %9 = getelementptr inbounds nuw %struct.cost_qual_eval_context, ptr %7, i32 0, i32 0
  store ptr %8, ptr %9, align 8
  %10 = getelementptr inbounds nuw %struct.cost_qual_eval_context, ptr %7, i32 0, i32 1
  %11 = getelementptr inbounds nuw %struct.QualCost, ptr %10, i32 0, i32 0
  store double 0.000000e+00, ptr %11, align 8
  %12 = getelementptr inbounds nuw %struct.cost_qual_eval_context, ptr %7, i32 0, i32 1
  %13 = getelementptr inbounds nuw %struct.QualCost, ptr %12, i32 0, i32 1
  store double 0.000000e+00, ptr %13, align 8
  %14 = load ptr, ptr %5, align 8
  %15 = call zeroext i1 @cost_qual_eval_walker(ptr noundef %14, ptr noundef %7)
  %16 = load ptr, ptr %4, align 8
  %17 = getelementptr inbounds nuw %struct.cost_qual_eval_context, ptr %7, i32 0, i32 1
  call void @llvm.memcpy.p0.p0.i64(ptr align 8 %16, ptr align 8 %17, i64 16, i1 false)
  call void @llvm.lifetime.end.p0(i64 24, ptr %7) #9
  ret void
}