; Function Attrs: nounwind uwtable
define dso_local void @cost_qual_eval_node(ptr noundef writeonly captures(none) initializes((0, 16)) %0, ptr noundef %1, ptr noundef %2) local_unnamed_addr #2 {
  %4 = alloca %struct.cost_qual_eval_context, align 8
  call void @llvm.lifetime.start.p0(i64 24, ptr nonnull %4) #17
  store ptr %2, ptr %4, align 8
  %5 = getelementptr inbounds nuw i8, ptr %4, i64 8
  call void @llvm.memset.p0.i64(ptr noundef nonnull align 8 dereferenceable(16) %5, i8 0, i64 16, i1 false)
  %6 = call zeroext i1 @cost_qual_eval_walker(ptr noundef %1, ptr noundef nonnull %4)
  call void @llvm.memcpy.p0.p0.i64(ptr noundef nonnull align 8 dereferenceable(16) %0, ptr noundef nonnull align 8 dereferenceable(16) %5, i64 16, i1 false)
  call void @llvm.lifetime.end.p0(i64 24, ptr nonnull %4) #17
  ret void
}